; Function Attrs: nofree norecurse nosync nounwind memory(read, inaccessiblemem: none) uwtable
define internal fastcc i32 @php_json_ucs2_to_int(ptr nocapture readonly %.0.val, i32 noundef %0) unnamed_addr #6 {
  %2 = icmp sgt i32 %0, 0
  br i1 %2, label %.lr.ph.i, label %php_json_ucs2_to_int_ex.exit

.lr.ph.i:                                         ; preds = %1, %php_json_hex_to_int.exit.i
  %.03.i.pn = phi ptr [ %.03.i, %php_json_hex_to_int.exit.i ], [ %.0.val, %1 ]
  %.082.i = phi i32 [ %17, %php_json_hex_to_int.exit.i ], [ 0, %1 ]
  %.091.i = phi i32 [ %18, %php_json_hex_to_int.exit.i ], [ 0, %1 ]
  %.03.i = getelementptr inbounds i8, ptr %.03.i.pn, i64 -1
  %3 = load i8, ptr %.03.i, align 1
  %4 = sext i8 %3 to i32
  %5 = add i8 %3, -48
  %or.cond.i.i = icmp ult i8 %5, 10
  br i1 %or.cond.i.i, label %6, label %8

6:                                                ; preds = %.lr.ph.i
  %7 = add nsw i32 %4, -48
  br label %php_json_hex_to_int.exit.i

8:                                                ; preds = %.lr.ph.i
  %9 = add i8 %3, -65
  %or.cond5.i.i = icmp ult i8 %9, 6
  br i1 %or.cond5.i.i, label %10, label %12

10:                                               ; preds = %8
  %11 = add nsw i32 %4, -55
  br label %php_json_hex_to_int.exit.i

12:                                               ; preds = %8
  %13 = add i8 %3, -97
  %or.cond8.i.i = icmp ult i8 %13, 6
  %14 = add nsw i32 %4, -87
  %spec.select.i.i = select i1 %or.cond8.i.i, i32 %14, i32 -1
  br label %php_json_hex_to_int.exit.i

php_json_hex_to_int.exit.i:                       ; preds = %12, %10, %6
  %.0.i.i = phi i32 [ %7, %6 ], [ %11, %10 ], [ %spec.select.i.i, %12 ]
  %15 = shl nsw i32 %.091.i, 2
  %16 = shl i32 %.0.i.i, %15
  %17 = or i32 %16, %.082.i
  %18 = add nuw nsw i32 %.091.i, 1
  %exitcond.not.i = icmp eq i32 %18, %0
  br i1 %exitcond.not.i, label %php_json_ucs2_to_int_ex.exit, label %.lr.ph.i

php_json_ucs2_to_int_ex.exit:                     ; preds = %php_json_hex_to_int.exit.i, %1
  %.08.lcssa.i = phi i32 [ 0, %1 ], [ %17, %php_json_hex_to_int.exit.i ]
  ret i32 %.08.lcssa.i
}